; Function Attrs: mustprogress nofree norecurse nosync nounwind willreturn memory(argmem: readwrite) uwtable
define void @_ZN6icu_7712RegexMatcher23setFindProgressCallbackEPFaPKvlES2_R10UErrorCode(ptr noundef nonnull writeonly align 8 captures(none) dereferenceable(336) %0, ptr noundef %1, ptr noundef %2, ptr noundef nonnull readonly align 4 captures(none) dereferenceable(4) %3) unnamed_addr #10 align 2 {
  %5 = load i32, ptr %3, align 4, !tbaa !13
  %6 = icmp slt i32 %5, 1
  br i1 %6, label %7, label %10

7:                                                ; preds = %4
  %8 = getelementptr inbounds nuw i8, ptr %0, i64 296
  store ptr %1, ptr %8, align 8, !tbaa !114
  %9 = getelementptr inbounds nuw i8, ptr %0, i64 304
  store ptr %2, ptr %9, align 8, !tbaa !115
  br label %10

10:                                               ; preds = %4, %7
  ret void
}